target datalayout = "e-m:e-p270:32:32-p271:32:32-p272:64:64-i64:64-i128:128-f80:128-n8:16:32:64-S128"
target triple = "x86_64-pc-linux-gnu"

@LWLockTrancheNamesAllocated = internal global i32 0, align 4
@LWLockTrancheNames = internal global ptr null, align 8
@.str.5 = private unnamed_addr constant [10 x i8] c"extension\00", align 1

; Function Attrs: nounwind uwtable
define internal ptr @GetLWTrancheName(i16 noundef zeroext %0) #0 {
  %2 = alloca ptr, align 8
  %3 = alloca i16, align 2
  store i16 %0, ptr %3, align 2
  %4 = load i16, ptr %3, align 2
  %5 = zext i16 %4 to i32
  %6 = icmp slt i32 %5, 92
  br i1 %6, label %7, label %12

7:                                                ; preds = %1
  %8 = load i16, ptr %3, align 2
  %9 = zext i16 %8 to i64
  %10 = getelementptr inbounds nuw [92 x ptr], ptr @BuiltinTrancheNames, i64 0, i64 %9
  %11 = load ptr, ptr %10, align 8
  store ptr %11, ptr %2, align 8
  br label %35

12:                                               ; preds = %1
  %13 = load i16, ptr %3, align 2
  %14 = zext i16 %13 to i32
  %15 = sub i32 %14, 92
  %16 = trunc i32 %15 to i16
  store i16 %16, ptr %3, align 2
  %17 = load i16, ptr %3, align 2
  %18 = zext i16 %17 to i32
  %19 = load i32, ptr @LWLockTrancheNamesAllocated, align 4
  %20 = icmp sge i32 %18, %19
  br i1 %20, label %28, label %21

21:                                               ; preds = %12
  %22 = load ptr, ptr @LWLockTrancheNames, align 8
  %23 = load i16, ptr %3, align 2
  %24 = zext i16 %23 to i64
  %25 = getelementptr inbounds nuw ptr, ptr %22, i64 %24
  %26 = load ptr, ptr %25, align 8
  %27 = icmp eq ptr %26, null
  br i1 %27, label %28, label %29

28:                                               ; preds = %21, %12
  store ptr @.str.5, ptr %2, align 8
  br label %35

29:                                               ; preds = %21
  %30 = load ptr, ptr @LWLockTrancheNames, align 8
  %31 = load i16, ptr %3, align 2
  %32 = zext i16 %31 to i64
  %33 = getelementptr inbounds nuw ptr, ptr %30, i64 %32
  %34 = load ptr, ptr %33, align 8
  store ptr %34, ptr %2, align 8
  br label %35

35:                                               ; preds = %29, %28, %7
  %36 = load ptr, ptr %2, align 8
  ret ptr %36
}

; Function Attrs: nounwind uwtable
define dso_local ptr @GetLWLockIdentifier(i32 noundef %0, i16 noundef zeroext %1) #0 {
  %3 = alloca i32, align 4
  %4 = alloca i16, align 2
  store i32 %0, ptr %3, align 4
  store i16 %1, ptr %4, align 2
  %5 = load i16, ptr %4, align 2
  %6 = call ptr @GetLWTrancheName(i16 noundef zeroext %5)
  ret ptr %6
}