; Function Attrs: mustprogress nofree norecurse nosync nounwind willreturn memory(read, inaccessiblemem: none) uwtable
define dso_local ptr @GetLWLockIdentifier(i32 noundef %0, i16 noundef zeroext %1) local_unnamed_addr #8 {
  %3 = icmp ult i16 %1, 92
  br i1 %3, label %4, label %8

4:                                                ; preds = %2
  %5 = zext nneg i16 %1 to i64
  %6 = getelementptr inbounds nuw [92 x ptr], ptr @BuiltinTrancheNames, i64 0, i64 %5
  %7 = load ptr, ptr %6, align 8
  br label %GetLWTrancheName.exit

8:                                                ; preds = %2
  %9 = add i16 %1, -92
  %10 = zext i16 %9 to i32
  %11 = load i32, ptr @LWLockTrancheNamesAllocated, align 4
  %.not.i = icmp sgt i32 %11, %10
  br i1 %.not.i, label %12, label %GetLWTrancheName.exit

12:                                               ; preds = %8
  %13 = load ptr, ptr @LWLockTrancheNames, align 8
  %14 = zext i16 %9 to i64
  %15 = getelementptr inbounds nuw ptr, ptr %13, i64 %14
  %16 = load ptr, ptr %15, align 8
  %17 = icmp eq ptr %16, null
  %spec.select.i = select i1 %17, ptr @.str.5, ptr %16
  br label %GetLWTrancheName.exit

GetLWTrancheName.exit:                            ; preds = %4, %8, %12
  %.0.i = phi ptr [ %7, %4 ], [ @.str.5, %8 ], [ %spec.select.i, %12 ]
  ret ptr %.0.i
}